(lp0
S'poi'
p1
aS'exercised_stock_options'
p2
aS'total_stock_value'
p3
aS'bonus'
p4
aS'salary'
p5
aS'email_to_poi_ratio'
p6
aS'deferred_income'
p7
aS'long_term_incentive'
p8
aS'restricted_stock'
p9
aS'total_payments'
p10
aS'loan_advances'
p11
aS'expenses'
p12
aS'email_from_poi_ratio'
p13
aS'director_fees'
p14
aS'deferral_payments'
p15
a.